target datalayout = "e-m:e-p270:32:32-p271:32:32-p272:64:64-i64:64-i128:128-f80:128-n8:16:32:64-S128"
target triple = "x86_64-pc-linux-gnu"

%struct.dlist_node = type { ptr, ptr }
%struct.PgStat_TableStatus = type { i32, i8, ptr, %struct.PgStat_TableCounts, ptr }
%struct.PgStat_TableCounts = type { i64, i64, i64, i64, i64, i64, i64, i64, i8, i64, i64, i64, i64, i64 }
%struct.PgStat_TableXactStatus = type { i64, i64, i64, i8, i64, i64, i64, i32, ptr, ptr, ptr }
%struct.PgStat_SubXactStatus = type { i32, ptr, %struct.dclist_head, ptr }
%struct.dclist_head = type { %struct.dlist_head, i32 }
%struct.dlist_head = type { %struct.dlist_node }

; Function Attrs: nounwind uwtable
define dso_local void @PostPrepare_PgStat_Relations(ptr noundef %0) #0 {
  %2 = alloca ptr, align 8
  %3 = alloca ptr, align 8
  %4 = alloca ptr, align 8
  store ptr %0, ptr %2, align 8
  call void @llvm.lifetime.start.p0(i64 8, ptr %3) #6
  %5 = load ptr, ptr %2, align 8
  %6 = getelementptr inbounds nuw %struct.PgStat_SubXactStatus, ptr %5, i32 0, i32 3
  %7 = load ptr, ptr %6, align 8
  store ptr %7, ptr %3, align 8
  br label %8

8:                                                ; preds = %17, %1
  %9 = load ptr, ptr %3, align 8
  %10 = icmp ne ptr %9, null
  br i1 %10, label %11, label %21

11:                                               ; preds = %8
  call void @llvm.lifetime.start.p0(i64 8, ptr %4) #6
  %12 = load ptr, ptr %3, align 8
  %13 = getelementptr inbounds nuw %struct.PgStat_TableXactStatus, ptr %12, i32 0, i32 9
  %14 = load ptr, ptr %13, align 8
  store ptr %14, ptr %4, align 8
  %15 = load ptr, ptr %4, align 8
  %16 = getelementptr inbounds nuw %struct.PgStat_TableStatus, ptr %15, i32 0, i32 2
  store ptr null, ptr %16, align 8
  call void @llvm.lifetime.end.p0(i64 8, ptr %4) #6
  br label %17

17:                                               ; preds = %11
  %18 = load ptr, ptr %3, align 8
  %19 = getelementptr inbounds nuw %struct.PgStat_TableXactStatus, ptr %18, i32 0, i32 10
  %20 = load ptr, ptr %19, align 8
  store ptr %20, ptr %3, align 8
  br label %8, !llvm.loop !12

21:                                               ; preds = %8
  call void @llvm.lifetime.end.p0(i64 8, ptr %3) #6
  ret void
}