; Function Attrs: nofree norecurse nosync nounwind memory(readwrite, inaccessiblemem: none) uwtable
define dso_local void @PostPrepare_PgStat_Relations(ptr noundef readonly captures(none) %0) local_unnamed_addr #6 {
  %2 = getelementptr inbounds nuw i8, ptr %0, i64 40
  %.05 = load ptr, ptr %2, align 8
  %.not6 = icmp eq ptr %.05, null
  br i1 %.not6, label %._crit_edge, label %.lr.ph

.lr.ph:                                           ; preds = %1, %.lr.ph
  %.07 = phi ptr [ %.0, %.lr.ph ], [ %.05, %1 ]
  %3 = getelementptr inbounds nuw i8, ptr %.07, i64 72
  %4 = load ptr, ptr %3, align 8
  %5 = getelementptr inbounds nuw i8, ptr %4, i64 8
  store ptr null, ptr %5, align 8
  %6 = getelementptr inbounds nuw i8, ptr %.07, i64 80
  %.0 = load ptr, ptr %6, align 8
  %.not = icmp eq ptr %.0, null
  br i1 %.not, label %._crit_edge, label %.lr.ph, !llvm.loop !13

._crit_edge:                                      ; preds = %.lr.ph, %1
  ret void
}